; ModuleID = 'source-C-CXX/35/242.c'
source_filename = "source-C-CXX/35/242.c"
target datalayout = "e-m:e-p270:32:32-p271:32:32-p272:64:64-i64:64-f80:128-n8:16:32:64-S128"
target triple = "x86_64-pc-linux-gnu"

@.str = private unnamed_addr constant [3 x i8] c"%s\00", align 1
@.str.1 = private unnamed_addr constant [2 x i8] c" \00", align 1
@.str.2 = private unnamed_addr constant [3 x i8] c"NO\00", align 1
@.str.3 = private unnamed_addr constant [4 x i8] c"YES\00", align 1

; Function Attrs: nofree nounwind sspstrong uwtable
define dso_local void @main() local_unnamed_addr #0 {
  %1 = alloca [50 x i8], align 16
  %2 = alloca [50 x i8], align 16
  %3 = alloca [300 x i32], align 16
  %4 = alloca [300 x i32], align 16
  %5 = getelementptr inbounds [50 x i8], [50 x i8]* %1, i64 0, i64 0
  call void @llvm.lifetime.start.p0i8(i64 50, i8* nonnull %5) #5
  %6 = getelementptr inbounds [50 x i8], [50 x i8]* %2, i64 0, i64 0
  call void @llvm.lifetime.start.p0i8(i64 50, i8* nonnull %6) #5
  %7 = bitcast [300 x i32]* %3 to i8*
  call void @llvm.lifetime.start.p0i8(i64 1200, i8* nonnull %7) #5
  call void @llvm.memset.p0i8.i64(i8* noundef nonnull align 16 dereferenceable(1200) %7, i8 0, i64 1200, i1 false)
  %8 = bitcast [300 x i32]* %4 to i8*
  call void @llvm.lifetime.start.p0i8(i64 1200, i8* nonnull %8) #5
  call void @llvm.memset.p0i8.i64(i8* noundef nonnull align 16 dereferenceable(1200) %8, i8 0, i64 1200, i1 false)
  %9 = call i32 (i8*, ...) @__isoc99_scanf(i8* getelementptr inbounds ([3 x i8], [3 x i8]* @.str, i64 0, i64 0), i8* nonnull %5)
  %10 = call i32 (i8*, ...) @__isoc99_scanf(i8* getelementptr inbounds ([2 x i8], [2 x i8]* @.str.1, i64 0, i64 0))
  %11 = call i32 (i8*, ...) @__isoc99_scanf(i8* getelementptr inbounds ([3 x i8], [3 x i8]* @.str, i64 0, i64 0), i8* nonnull %6)
  %12 = call i64 @strlen(i8* noundef nonnull %5) #6
  %13 = trunc i64 %12 to i32
  %14 = call i64 @strlen(i8* noundef nonnull %6) #6
  %15 = trunc i64 %14 to i32
  %16 = icmp eq i32 %13, %15
  br i1 %16, label %17, label %115

17:                                               ; preds = %0
  %18 = icmp sgt i32 %13, 0
  br i1 %18, label %19, label %72

19:                                               ; preds = %17
  %20 = and i64 %12, 4294967295
  %21 = and i64 %12, 1
  %22 = icmp eq i64 %20, 1
  br i1 %22, label %56, label %23

23:                                               ; preds = %19
  %24 = sub nsw i64 %20, %21
  br label %25

25:                                               ; preds = %25, %23
  %26 = phi i64 [ 0, %23 ], [ %53, %25 ]
  %27 = phi i64 [ %24, %23 ], [ %54, %25 ]
  %28 = getelementptr inbounds [50 x i8], [50 x i8]* %1, i64 0, i64 %26
  %29 = load i8, i8* %28, align 2, !tbaa !5
  %30 = sext i8 %29 to i64
  %31 = getelementptr inbounds [300 x i32], [300 x i32]* %3, i64 0, i64 %30
  %32 = load i32, i32* %31, align 4, !tbaa !8
  %33 = add nsw i32 %32, 1
  store i32 %33, i32* %31, align 4, !tbaa !8
  %34 = getelementptr inbounds [50 x i8], [50 x i8]* %2, i64 0, i64 %26
  %35 = load i8, i8* %34, align 2, !tbaa !5
  %36 = sext i8 %35 to i64
  %37 = getelementptr inbounds [300 x i32], [300 x i32]* %4, i64 0, i64 %36
  %38 = load i32, i32* %37, align 4, !tbaa !8
  %39 = add nsw i32 %38, 1
  store i32 %39, i32* %37, align 4, !tbaa !8
  %40 = or i64 %26, 1
  %41 = getelementptr inbounds [50 x i8], [50 x i8]* %1, i64 0, i64 %40
  %42 = load i8, i8* %41, align 1, !tbaa !5
  %43 = sext i8 %42 to i64
  %44 = getelementptr inbounds [300 x i32], [300 x i32]* %3, i64 0, i64 %43
  %45 = load i32, i32* %44, align 4, !tbaa !8
  %46 = add nsw i32 %45, 1
  store i32 %46, i32* %44, align 4, !tbaa !8
  %47 = getelementptr inbounds [50 x i8], [50 x i8]* %2, i64 0, i64 %40
  %48 = load i8, i8* %47, align 1, !tbaa !5
  %49 = sext i8 %48 to i64
  %50 = getelementptr inbounds [300 x i32], [300 x i32]* %4, i64 0, i64 %49
  %51 = load i32, i32* %50, align 4, !tbaa !8
  %52 = add nsw i32 %51, 1
  store i32 %52, i32* %50, align 4, !tbaa !8
  %53 = add nuw nsw i64 %26, 2
  %54 = add i64 %27, -2
  %55 = icmp eq i64 %54, 0
  br i1 %55, label %56, label %25, !llvm.loop !10

56:                                               ; preds = %25, %19
  %57 = phi i64 [ 0, %19 ], [ %53, %25 ]
  %58 = icmp eq i64 %21, 0
  br i1 %58, label %72, label %59

59:                                               ; preds = %56
  %60 = getelementptr inbounds [50 x i8], [50 x i8]* %1, i64 0, i64 %57
  %61 = load i8, i8* %60, align 1, !tbaa !5
  %62 = sext i8 %61 to i64
  %63 = getelementptr inbounds [300 x i32], [300 x i32]* %3, i64 0, i64 %62
  %64 = load i32, i32* %63, align 4, !tbaa !8
  %65 = add nsw i32 %64, 1
  store i32 %65, i32* %63, align 4, !tbaa !8
  %66 = getelementptr inbounds [50 x i8], [50 x i8]* %2, i64 0, i64 %57
  %67 = load i8, i8* %66, align 1, !tbaa !5
  %68 = sext i8 %67 to i64
  %69 = getelementptr inbounds [300 x i32], [300 x i32]* %4, i64 0, i64 %68
  %70 = load i32, i32* %69, align 4, !tbaa !8
  %71 = add nsw i32 %70, 1
  store i32 %71, i32* %69, align 4, !tbaa !8
  br label %72

72:                                               ; preds = %59, %56, %17
  br label %73

73:                                               ; preds = %73, %72
  %74 = phi i64 [ 0, %72 ], [ %110, %73 ]
  %75 = phi i32 [ 0, %72 ], [ %109, %73 ]
  %76 = getelementptr inbounds [300 x i32], [300 x i32]* %3, i64 0, i64 %74
  %77 = load i32, i32* %76, align 4, !tbaa !8
  %78 = getelementptr inbounds [300 x i32], [300 x i32]* %4, i64 0, i64 %74
  %79 = load i32, i32* %78, align 4, !tbaa !8
  %80 = icmp eq i32 %77, %79
  %81 = add nuw nsw i64 %74, 1
  %82 = getelementptr inbounds [300 x i32], [300 x i32]* %3, i64 0, i64 %81
  %83 = load i32, i32* %82, align 4, !tbaa !8
  %84 = getelementptr inbounds [300 x i32], [300 x i32]* %4, i64 0, i64 %81
  %85 = load i32, i32* %84, align 4, !tbaa !8
  %86 = icmp eq i32 %83, %85
  %87 = add nuw nsw i64 %74, 2
  %88 = getelementptr inbounds [300 x i32], [300 x i32]* %3, i64 0, i64 %87
  %89 = load i32, i32* %88, align 4, !tbaa !8
  %90 = getelementptr inbounds [300 x i32], [300 x i32]* %4, i64 0, i64 %87
  %91 = load i32, i32* %90, align 4, !tbaa !8
  %92 = icmp eq i32 %89, %91
  %93 = add nuw nsw i64 %74, 3
  %94 = getelementptr inbounds [300 x i32], [300 x i32]* %3, i64 0, i64 %93
  %95 = load i32, i32* %94, align 4, !tbaa !8
  %96 = getelementptr inbounds [300 x i32], [300 x i32]* %4, i64 0, i64 %93
  %97 = load i32, i32* %96, align 4, !tbaa !8
  %98 = icmp eq i32 %95, %97
  %99 = add nuw nsw i64 %74, 4
  %100 = getelementptr inbounds [300 x i32], [300 x i32]* %3, i64 0, i64 %99
  %101 = load i32, i32* %100, align 4, !tbaa !8
  %102 = getelementptr inbounds [300 x i32], [300 x i32]* %4, i64 0, i64 %99
  %103 = load i32, i32* %102, align 4, !tbaa !8
  %104 = icmp eq i32 %101, %103
  %105 = select i1 %104, i1 %98, i1 false
  %106 = select i1 %105, i1 %92, i1 false
  %107 = select i1 %106, i1 %86, i1 false
  %108 = select i1 %107, i1 %80, i1 false
  %109 = select i1 %108, i32 %75, i32 1
  %110 = add nuw nsw i64 %74, 5
  %111 = icmp eq i64 %110, 300
  br i1 %111, label %112, label %73, !llvm.loop !12

112:                                              ; preds = %73
  %113 = icmp eq i32 %109, 0
  %114 = select i1 %113, i8* getelementptr inbounds ([4 x i8], [4 x i8]* @.str.3, i64 0, i64 0), i8* getelementptr inbounds ([3 x i8], [3 x i8]* @.str.2, i64 0, i64 0)
  br label %115

115:                                              ; preds = %112, %0
  %116 = phi i8* [ getelementptr inbounds ([3 x i8], [3 x i8]* @.str.2, i64 0, i64 0), %0 ], [ %114, %112 ]
  %117 = call i32 (i8*, ...) @printf(i8* nonnull dereferenceable(1) %116)
  call void @llvm.lifetime.end.p0i8(i64 1200, i8* nonnull %8) #5
  call void @llvm.lifetime.end.p0i8(i64 1200, i8* nonnull %7) #5
  call void @llvm.lifetime.end.p0i8(i64 50, i8* nonnull %6) #5
  call void @llvm.lifetime.end.p0i8(i64 50, i8* nonnull %5) #5
  ret void
}

; Function Attrs: argmemonly mustprogress nofree nosync nounwind willreturn
declare void @llvm.lifetime.start.p0i8(i64 immarg, i8* nocapture) #1

; Function Attrs: argmemonly mustprogress nofree nounwind willreturn writeonly
declare void @llvm.memset.p0i8.i64(i8* nocapture writeonly, i8, i64, i1 immarg) #2

; Function Attrs: nofree nounwind
declare noundef i32 @__isoc99_scanf(i8* nocapture noundef readonly, ...) local_unnamed_addr #3

; Function Attrs: argmemonly mustprogress nofree nounwind readonly willreturn
declare i64 @strlen(i8* nocapture) local_unnamed_addr #4

; Function Attrs: nofree nounwind
declare noundef i32 @printf(i8* nocapture noundef readonly, ...) local_unnamed_addr #3

; Function Attrs: argmemonly mustprogress nofree nosync nounwind willreturn
declare void @llvm.lifetime.end.p0i8(i64 immarg, i8* nocapture) #1


!llvm.module.flags = !{!0, !1, !2, !3}
!llvm.ident = !{!4}

!0 = !{i32 1, !"wchar_size", i32 4}
!1 = !{i32 7, !"PIC Level", i32 2}
!2 = !{i32 7, !"PIE Level", i32 2}
!3 = !{i32 7, !"uwtable", i32 1}
!4 = !{!"clang version 13.0.0"}
!5 = !{!6, !6, i64 0}
!6 = !{!"omnipotent char", !7, i64 0}
!7 = !{!"Simple C/C++ TBAA"}
!8 = !{!9, !9, i64 0}
!9 = !{!"int", !6, i64 0}
!10 = distinct !{!10, !11}
!11 = !{!"llvm.loop.mustprogress"}
!12 = distinct !{!12, !11}
